target datalayout = "e-m:e-p270:32:32-p271:32:32-p272:64:64-i64:64-i128:128-f80:128-n8:16:32:64-S128"
target triple = "x86_64-pc-linux-gnu"

%"struct.std::atomic.10" = type { %"struct.std::__atomic_base.11" }
%"struct.std::__atomic_base.11" = type { i64 }
%"struct.std::atomic" = type { %"struct.std::__atomic_base" }
%"struct.std::__atomic_base" = type { i32 }
%"class.std::__shared_count" = type { ptr }
%"class.folly::Baton" = type { %"struct.std::atomic" }
%"class.std::shared_ptr.0" = type { %"class.std::__shared_ptr.1" }
%"class.std::__shared_ptr.1" = type { ptr, %"class.std::__shared_count" }
%"class.folly::Function" = type { %"union.folly::detail::function::Data", ptr, ptr }
%"union.folly::detail::function::Data" = type { %"struct.folly::detail::function::Data::BigTrivialLayout", [24 x i8] }
%"struct.folly::detail::function::Data::BigTrivialLayout" = type { ptr, i64, i64 }
%"class.std::shared_ptr.30" = type { %"class.std::__shared_ptr.31" }
%"class.std::__shared_ptr.31" = type { ptr, %"class.std::__shared_count" }
%"struct.folly::ThreadPoolExecutor::Task" = type { %"class.folly::Function", %"class.std::chrono::time_point", %"class.std::shared_ptr.102", %"class.std::unique_ptr.105", i8, i64 }
%"class.std::chrono::time_point" = type { %"class.std::chrono::duration.9" }
%"class.std::chrono::duration.9" = type { i64 }
%"class.std::shared_ptr.102" = type { %"class.std::__shared_ptr.103" }
%"class.std::__shared_ptr.103" = type { ptr, %"class.std::__shared_count" }
%"class.std::unique_ptr.105" = type { %"struct.std::__uniq_ptr_data.106" }
%"struct.std::__uniq_ptr_data.106" = type { %"class.std::__uniq_ptr_impl.107" }
%"class.std::__uniq_ptr_impl.107" = type { %"class.std::tuple.108" }
%"class.std::tuple.108" = type { %"struct.std::_Tuple_impl.109" }
%"struct.std::_Tuple_impl.109" = type { %"struct.std::_Head_base.112" }
%"struct.std::_Head_base.112" = type { ptr }
%class.anon.113 = type { ptr, %"class.std::shared_ptr.30", [8 x i8], %"struct.folly::ThreadPoolExecutor::Task" }
%"class.std::mutex" = type { %"class.std::__mutex_base" }
%"class.std::__mutex_base" = type { %union.pthread_mutex_t }
%union.pthread_mutex_t = type { %struct.__pthread_mutex_s }
%struct.__pthread_mutex_s = type { i32, i32, i32, i32, i32, i16, i16, %struct.__pthread_internal_list }
%struct.__pthread_internal_list = type { ptr, ptr }
%"struct.std::atomic.12" = type { %"struct.std::__atomic_base.13" }
%"struct.std::__atomic_base.13" = type { i8 }
%"struct.folly::IOThreadPoolExecutor::IOThread" = type { %"struct.folly::ThreadPoolExecutor::Thread.base", %"struct.std::atomic.12", %"struct.std::atomic.10", ptr, %"class.std::mutex", [24 x i8] }
%"struct.folly::ThreadPoolExecutor::Thread.base" = type <{ %"class.folly::ThreadPoolExecutor::ThreadHandle", i64, %"class.std::thread", %"struct.std::atomic.12", [7 x i8], %"class.folly::AtomicStruct.29", %"class.folly::Baton" }>
%"class.folly::ThreadPoolExecutor::ThreadHandle" = type { ptr }
%"class.std::thread" = type { %"class.std::thread::id" }
%"class.std::thread::id" = type { i64 }
%"class.folly::AtomicStruct.29" = type { %"struct.std::atomic.10" }
%"class.std::_Sp_counted_base" = type { ptr, i32, i32 }

@__libc_single_threaded = external global i8, align 1

; Function Attrs: alwaysinline mustprogress nounwind uwtable
define linkonce_odr void @_ZN9__gnu_cxx12__atomic_addEPVii(ptr noundef %0, i32 noundef %1) #14 comdat {
  %3 = alloca ptr, align 8
  %4 = alloca i32, align 4
  %5 = alloca i32, align 4
  %6 = alloca i32, align 4
  store ptr %0, ptr %3, align 8, !tbaa !182
  store i32 %1, ptr %4, align 4, !tbaa !35
  %7 = load ptr, ptr %3, align 8, !tbaa !182
  %8 = load i32, ptr %4, align 4, !tbaa !35
  store i32 %8, ptr %5, align 4, !tbaa !35
  %9 = load i32, ptr %5, align 4
  %10 = atomicrmw volatile add ptr %7, i32 %9 acq_rel, align 4
  store i32 %10, ptr %6, align 4
  ret void
}

; Function Attrs: alwaysinline mustprogress nounwind uwtable
define linkonce_odr void @_ZN9__gnu_cxx19__atomic_add_singleEPii(ptr noundef %0, i32 noundef %1) #14 comdat {
  %3 = alloca ptr, align 8
  %4 = alloca i32, align 4
  store ptr %0, ptr %3, align 8, !tbaa !182
  store i32 %1, ptr %4, align 4, !tbaa !35
  %5 = load i32, ptr %4, align 4, !tbaa !35
  %6 = load ptr, ptr %3, align 8, !tbaa !182
  %7 = load i32, ptr %6, align 4, !tbaa !35
  %8 = add nsw i32 %7, %5
  store i32 %8, ptr %6, align 4, !tbaa !35
  ret void
}

; Function Attrs: alwaysinline mustprogress nounwind uwtable
define linkonce_odr noundef zeroext i1 @_ZN9__gnu_cxx20__is_single_threadedEv() #14 comdat {
  %1 = load i8, ptr @__libc_single_threaded, align 1, !tbaa !184
  %2 = icmp ne i8 %1, 0
  ret i1 %2
}

; Function Attrs: alwaysinline mustprogress uwtable
define linkonce_odr void @_ZN9__gnu_cxx21__atomic_add_dispatchEPii(ptr noundef %0, i32 noundef %1) #10 comdat {
  %3 = alloca ptr, align 8
  %4 = alloca i32, align 4
  store ptr %0, ptr %3, align 8, !tbaa !182
  store i32 %1, ptr %4, align 4, !tbaa !35
  %5 = call noundef zeroext i1 @_ZN9__gnu_cxx20__is_single_threadedEv() #25
  br i1 %5, label %6, label %9

6:                                                ; preds = %2
  %7 = load ptr, ptr %3, align 8, !tbaa !182
  %8 = load i32, ptr %4, align 4, !tbaa !35
  call void @_ZN9__gnu_cxx19__atomic_add_singleEPii(ptr noundef %7, i32 noundef %8)
  br label %12

9:                                                ; preds = %2
  %10 = load ptr, ptr %3, align 8, !tbaa !182
  %11 = load i32, ptr %4, align 4, !tbaa !35
  call void @_ZN9__gnu_cxx12__atomic_addEPVii(ptr noundef %10, i32 noundef %11)
  br label %12

12:                                               ; preds = %9, %6
  ret void
}

; Function Attrs: noinline noreturn nounwind uwtable
define linkonce_odr hidden void @__clang_call_terminate(ptr noundef %0) #11 comdat {
  %2 = call ptr @__cxa_begin_catch(ptr %0) #25
  call void @_ZSt9terminatev() #34
  unreachable
}

; Function Attrs: mustprogress uwtable
define linkonce_odr void @_ZNSt16_Sp_counted_baseILN9__gnu_cxx12_Lock_policyE2EE15_M_add_ref_copyEv(ptr noundef nonnull align 8 dereferenceable(16) %0) #2 comdat align 2 {
  %2 = alloca ptr, align 8
  store ptr %0, ptr %2, align 8, !tbaa !174
  %3 = load ptr, ptr %2, align 8
  %4 = getelementptr inbounds nuw %"class.std::_Sp_counted_base", ptr %3, i32 0, i32 1
  call void @_ZN9__gnu_cxx21__atomic_add_dispatchEPii(ptr noundef %4, i32 noundef 1)
  ret void
}

; Function Attrs: mustprogress nounwind uwtable
define linkonce_odr noundef ptr @_ZNKSt12__shared_ptrIN5folly20IOThreadPoolExecutor8IOThreadELN9__gnu_cxx12_Lock_policyE2EE3getEv(ptr noundef nonnull align 8 dereferenceable(16) %0) #0 comdat align 2 {
  %2 = alloca ptr, align 8
  store ptr %0, ptr %2, align 8, !tbaa !224
  %3 = load ptr, ptr %2, align 8
  %4 = getelementptr inbounds nuw %"class.std::__shared_ptr.31", ptr %3, i32 0, i32 0
  %5 = load ptr, ptr %4, align 8, !tbaa !226
  ret ptr %5
}

; Function Attrs: mustprogress nounwind uwtable
define linkonce_odr void @_ZNSt14__shared_countILN9__gnu_cxx12_Lock_policyE2EEC2ERKS2_(ptr noundef nonnull align 8 dereferenceable(8) %0, ptr noundef nonnull align 8 dereferenceable(8) %1) unnamed_addr #0 comdat align 2 personality ptr @__gxx_personality_v0 {
  %3 = alloca ptr, align 8
  %4 = alloca ptr, align 8
  store ptr %0, ptr %3, align 8, !tbaa !171
  store ptr %1, ptr %4, align 8, !tbaa !171
  %5 = load ptr, ptr %3, align 8
  %6 = getelementptr inbounds nuw %"class.std::__shared_count", ptr %5, i32 0, i32 0
  %7 = load ptr, ptr %4, align 8, !tbaa !171
  %8 = getelementptr inbounds nuw %"class.std::__shared_count", ptr %7, i32 0, i32 0
  %9 = load ptr, ptr %8, align 8, !tbaa !173
  store ptr %9, ptr %6, align 8, !tbaa !173
  %10 = getelementptr inbounds nuw %"class.std::__shared_count", ptr %5, i32 0, i32 0
  %11 = load ptr, ptr %10, align 8, !tbaa !173
  %12 = icmp ne ptr %11, null
  br i1 %12, label %13, label %17

13:                                               ; preds = %2
  %14 = getelementptr inbounds nuw %"class.std::__shared_count", ptr %5, i32 0, i32 0
  %15 = load ptr, ptr %14, align 8, !tbaa !173
  invoke void @_ZNSt16_Sp_counted_baseILN9__gnu_cxx12_Lock_policyE2EE15_M_add_ref_copyEv(ptr noundef nonnull align 8 dereferenceable(16) %15)
          to label %16 unwind label %18

16:                                               ; preds = %13
  br label %17

17:                                               ; preds = %16, %2
  ret void

18:                                               ; preds = %13
  %19 = landingpad { ptr, i32 }
          catch ptr null
  %20 = extractvalue { ptr, i32 } %19, 0
  call void @__clang_call_terminate(ptr %20) #34
  unreachable
}

; Function Attrs: alwaysinline mustprogress nounwind uwtable
define linkonce_odr noundef i64 @_ZNSt13__atomic_baseImE9fetch_subEmSt12memory_order(ptr noundef nonnull align 8 dereferenceable(8) %0, i64 noundef %1, i32 noundef %2) #14 comdat align 2 {
  %4 = alloca ptr, align 8
  %5 = alloca i64, align 8
  %6 = alloca i32, align 4
  %7 = alloca i64, align 8
  %8 = alloca i64, align 8
  store ptr %0, ptr %4, align 8, !tbaa !200
  store i64 %1, ptr %5, align 8, !tbaa !16
  store i32 %2, ptr %6, align 4, !tbaa !287
  %9 = load ptr, ptr %4, align 8
  %10 = getelementptr inbounds nuw %"struct.std::__atomic_base.11", ptr %9, i32 0, i32 0
  %11 = load i32, ptr %6, align 4, !tbaa !287
  %12 = load i64, ptr %5, align 8, !tbaa !16
  store i64 %12, ptr %7, align 8, !tbaa !16
  switch i32 %11, label %13 [
    i32 1, label %16
    i32 2, label %16
    i32 3, label %19
    i32 4, label %22
    i32 5, label %25
  ]

13:                                               ; preds = %3
  %14 = load i64, ptr %7, align 8
  %15 = atomicrmw sub ptr %10, i64 %14 monotonic, align 8
  store i64 %15, ptr %8, align 8
  br label %28

16:                                               ; preds = %3, %3
  %17 = load i64, ptr %7, align 8
  %18 = atomicrmw sub ptr %10, i64 %17 acquire, align 8
  store i64 %18, ptr %8, align 8
  br label %28

19:                                               ; preds = %3
  %20 = load i64, ptr %7, align 8
  %21 = atomicrmw sub ptr %10, i64 %20 release, align 8
  store i64 %21, ptr %8, align 8
  br label %28

22:                                               ; preds = %3
  %23 = load i64, ptr %7, align 8
  %24 = atomicrmw sub ptr %10, i64 %23 acq_rel, align 8
  store i64 %24, ptr %8, align 8
  br label %28

25:                                               ; preds = %3
  %26 = load i64, ptr %7, align 8
  %27 = atomicrmw sub ptr %10, i64 %26 seq_cst, align 8
  store i64 %27, ptr %8, align 8
  br label %28

28:                                               ; preds = %25, %22, %19, %16, %13
  %29 = load i64, ptr %8, align 8, !tbaa !16
  ret i64 %29
}

; Function Attrs: mustprogress nounwind uwtable
define linkonce_odr noundef ptr @_ZNKSt19__shared_ptr_accessIN5folly20IOThreadPoolExecutor8IOThreadELN9__gnu_cxx12_Lock_policyE2ELb0ELb0EE6_M_getEv(ptr noundef nonnull align 1 dereferenceable(1) %0) #0 comdat align 2 {
  %2 = alloca ptr, align 8
  store ptr %0, ptr %2, align 8, !tbaa !632
  %3 = load ptr, ptr %2, align 8
  %4 = call noundef ptr @_ZNKSt12__shared_ptrIN5folly20IOThreadPoolExecutor8IOThreadELN9__gnu_cxx12_Lock_policyE2EE3getEv(ptr noundef nonnull align 8 dereferenceable(16) %3) #25
  ret ptr %4
}

; Function Attrs: mustprogress nounwind uwtable
define linkonce_odr void @_ZNSt12__shared_ptrIN5folly18ThreadPoolExecutor6ThreadELN9__gnu_cxx12_Lock_policyE2EEC2INS0_20IOThreadPoolExecutor8IOThreadEvEERKS_IT_LS4_2EE(ptr noundef nonnull align 8 dereferenceable(16) %0, ptr noundef nonnull align 8 dereferenceable(16) %1) unnamed_addr #0 comdat align 2 {
  %3 = alloca ptr, align 8
  %4 = alloca ptr, align 8
  store ptr %0, ptr %3, align 8, !tbaa !684
  store ptr %1, ptr %4, align 8, !tbaa !224
  %5 = load ptr, ptr %3, align 8
  %6 = getelementptr inbounds nuw %"class.std::__shared_ptr.1", ptr %5, i32 0, i32 0
  %7 = load ptr, ptr %4, align 8, !tbaa !224
  %8 = getelementptr inbounds nuw %"class.std::__shared_ptr.31", ptr %7, i32 0, i32 0
  %9 = load ptr, ptr %8, align 8, !tbaa !226
  store ptr %9, ptr %6, align 8, !tbaa !686
  %10 = getelementptr inbounds nuw %"class.std::__shared_ptr.1", ptr %5, i32 0, i32 1
  %11 = load ptr, ptr %4, align 8, !tbaa !224
  %12 = getelementptr inbounds nuw %"class.std::__shared_ptr.31", ptr %11, i32 0, i32 1
  call void @_ZNSt14__shared_countILN9__gnu_cxx12_Lock_policyE2EEC2ERKS2_(ptr noundef nonnull align 8 dereferenceable(8) %10, ptr noundef nonnull align 8 dereferenceable(8) %12) #25
  ret void
}

; Function Attrs: mustprogress nounwind uwtable
define linkonce_odr noundef i64 @_ZNSt13__atomic_baseImEmmEi(ptr noundef nonnull align 8 dereferenceable(8) %0, i32 noundef %1) #0 comdat align 2 {
  %3 = alloca ptr, align 8
  %4 = alloca i32, align 4
  store ptr %0, ptr %3, align 8, !tbaa !200
  store i32 %1, ptr %4, align 4, !tbaa !35
  %5 = load ptr, ptr %3, align 8
  %6 = call noundef i64 @_ZNSt13__atomic_baseImE9fetch_subEmSt12memory_order(ptr noundef nonnull align 8 dereferenceable(8) %5, i64 noundef 1, i32 noundef 5) #25
  ret i64 %6
}

; Function Attrs: mustprogress nounwind uwtable
define linkonce_odr noundef ptr @_ZNKSt19__shared_ptr_accessIN5folly20IOThreadPoolExecutor8IOThreadELN9__gnu_cxx12_Lock_policyE2ELb0ELb0EEptEv(ptr noundef nonnull align 1 dereferenceable(1) %0) #0 comdat align 2 {
  %2 = alloca ptr, align 8
  store ptr %0, ptr %2, align 8, !tbaa !632
  %3 = load ptr, ptr %2, align 8
  %4 = call noundef ptr @_ZNKSt19__shared_ptr_accessIN5folly20IOThreadPoolExecutor8IOThreadELN9__gnu_cxx12_Lock_policyE2ELb0ELb0EE6_M_getEv(ptr noundef nonnull align 1 dereferenceable(1) %3) #25
  ret ptr %4
}

; Function Attrs: mustprogress nounwind uwtable
define linkonce_odr void @_ZNSt10shared_ptrIN5folly18ThreadPoolExecutor6ThreadEEC2INS0_20IOThreadPoolExecutor8IOThreadEvEERKS_IT_E(ptr noundef nonnull align 8 dereferenceable(16) %0, ptr noundef nonnull align 8 dereferenceable(16) %1) unnamed_addr #0 comdat align 2 {
  %3 = alloca ptr, align 8
  %4 = alloca ptr, align 8
  store ptr %0, ptr %3, align 8, !tbaa !77
  store ptr %1, ptr %4, align 8, !tbaa !79
  %5 = load ptr, ptr %3, align 8
  %6 = load ptr, ptr %4, align 8, !tbaa !79
  call void @_ZNSt12__shared_ptrIN5folly18ThreadPoolExecutor6ThreadELN9__gnu_cxx12_Lock_policyE2EEC2INS0_20IOThreadPoolExecutor8IOThreadEvEERKS_IT_LS4_2EE(ptr noundef nonnull align 8 dereferenceable(16) %5, ptr noundef nonnull align 8 dereferenceable(16) %6) #25
  ret void
}

; Function Attrs: inlinehint mustprogress uwtable
define internal void @"_ZZN5folly20IOThreadPoolExecutor3addENS_8FunctionIFvvEEENSt6chrono8durationIlSt5ratioILl1ELl1000EEEES3_EN3$_0clEv"(ptr noundef nonnull align 16 dereferenceable(144) %0) #15 align 2 personality ptr @__gxx_personality_v0 {
  %2 = alloca ptr, align 8
  %3 = alloca %"class.std::shared_ptr.0", align 8
  %4 = alloca ptr, align 8
  %5 = alloca i32, align 4
  store ptr %0, ptr %2, align 8, !tbaa !159
  %6 = load ptr, ptr %2, align 8
  %7 = getelementptr inbounds nuw %class.anon.113, ptr %6, i32 0, i32 0
  %8 = load ptr, ptr %7, align 16, !tbaa !38
  call void @llvm.lifetime.start.p0(i64 16, ptr %3) #25
  %9 = getelementptr inbounds nuw %class.anon.113, ptr %6, i32 0, i32 1
  call void @_ZNSt10shared_ptrIN5folly18ThreadPoolExecutor6ThreadEEC2INS0_20IOThreadPoolExecutor8IOThreadEvEERKS_IT_E(ptr noundef nonnull align 8 dereferenceable(16) %3, ptr noundef nonnull align 8 dereferenceable(16) %9) #25
  %10 = getelementptr inbounds nuw %class.anon.113, ptr %6, i32 0, i32 3
  invoke void @_ZN5folly18ThreadPoolExecutor7runTaskERKSt10shared_ptrINS0_6ThreadEEONS0_4TaskE(ptr noundef nonnull align 64 dereferenceable(480) %8, ptr noundef nonnull align 8 dereferenceable(16) %3, ptr noundef nonnull align 16 dereferenceable(112) %10)
          to label %11 unwind label %16

11:                                               ; preds = %1
  call void @_ZNSt12__shared_ptrIN5folly18ThreadPoolExecutor6ThreadELN9__gnu_cxx12_Lock_policyE2EED2Ev(ptr noundef nonnull align 8 dereferenceable(16) %3) #25
  call void @llvm.lifetime.end.p0(i64 16, ptr %3) #25
  %12 = getelementptr inbounds nuw %class.anon.113, ptr %6, i32 0, i32 1
  %13 = call noundef ptr @_ZNKSt19__shared_ptr_accessIN5folly20IOThreadPoolExecutor8IOThreadELN9__gnu_cxx12_Lock_policyE2ELb0ELb0EEptEv(ptr noundef nonnull align 1 dereferenceable(1) %12) #25
  %14 = getelementptr inbounds nuw %"struct.folly::IOThreadPoolExecutor::IOThread", ptr %13, i32 0, i32 2
  %15 = call noundef i64 @_ZNSt13__atomic_baseImEmmEi(ptr noundef nonnull align 8 dereferenceable(8) %14, i32 noundef 0) #25
  ret void

16:                                               ; preds = %1
  %17 = landingpad { ptr, i32 }
          cleanup
  %18 = extractvalue { ptr, i32 } %17, 0
  store ptr %18, ptr %4, align 8
  %19 = extractvalue { ptr, i32 } %17, 1
  store i32 %19, ptr %5, align 4
  call void @_ZNSt12__shared_ptrIN5folly18ThreadPoolExecutor6ThreadELN9__gnu_cxx12_Lock_policyE2EED2Ev(ptr noundef nonnull align 8 dereferenceable(16) %3) #25
  call void @llvm.lifetime.end.p0(i64 16, ptr %3) #25
  br label %20

20:                                               ; preds = %16
  %21 = load ptr, ptr %4, align 8
  %22 = load i32, ptr %5, align 4
  %23 = insertvalue { ptr, i32 } poison, ptr %21, 0
  %24 = insertvalue { ptr, i32 } %23, i32 %22, 1
  resume { ptr, i32 } %24
}

; Function Attrs: mustprogress uwtable
define internal void @"_ZN5folly6detail8function5call_IZNS_20IOThreadPoolExecutor3addENS_8FunctionIFvvEEENSt6chrono8durationIlSt5ratioILl1ELl1000EEEES6_E3$_0Lb0ELb0EvJEEET2_DpT3_RNS1_4DataE"(ptr noundef nonnull align 16 dereferenceable(48) %0) #2 {
  %2 = alloca ptr, align 8
  %3 = alloca ptr, align 8
  store ptr %0, ptr %2, align 8, !tbaa !417
  call void @llvm.lifetime.start.p0(i64 8, ptr %3) #25
  %4 = load ptr, ptr %2, align 8, !tbaa !417
  %5 = load ptr, ptr %4, align 16, !tbaa !184
  store ptr %5, ptr %3, align 8, !tbaa !159
  %6 = load ptr, ptr %3, align 8, !tbaa !159
  call void @"_ZZN5folly20IOThreadPoolExecutor3addENS_8FunctionIFvvEEENSt6chrono8durationIlSt5ratioILl1ELl1000EEEES3_EN3$_0clEv"(ptr noundef nonnull align 16 dereferenceable(144) %6)
  call void @llvm.lifetime.end.p0(i64 8, ptr %3) #25
  ret void
}