; Function Attrs: mustprogress uwtable
define internal void @"_ZN5folly6detail8function5call_IZNS_20IOThreadPoolExecutor3addENS_8FunctionIFvvEEENSt6chrono8durationIlSt5ratioILl1ELl1000EEEES6_E3$_0Lb0ELb0EvJEEET2_DpT3_RNS1_4DataE"(ptr noundef nonnull readonly align 16 captures(none) dereferenceable(48) %0) #2 personality ptr @__gxx_personality_v0 {
  %2 = alloca %"class.std::shared_ptr.0", align 8
  %3 = load ptr, ptr %0, align 16, !tbaa !48
  %4 = load ptr, ptr %3, align 16, !tbaa !63
  call void @llvm.lifetime.start.p0(i64 16, ptr nonnull %2) #25
  %5 = getelementptr inbounds nuw i8, ptr %3, i64 8
  %6 = load ptr, ptr %5, align 8, !tbaa !82
  store ptr %6, ptr %2, align 8, !tbaa !18
  %7 = getelementptr inbounds nuw i8, ptr %2, i64 8
  %8 = getelementptr inbounds nuw i8, ptr %3, i64 16
  %9 = load ptr, ptr %8, align 8, !tbaa !46
  store ptr %9, ptr %7, align 8, !tbaa !46
  %.not.i.i.i.i = icmp eq ptr %9, null
  br i1 %.not.i.i.i.i, label %_ZNSt10shared_ptrIN5folly18ThreadPoolExecutor6ThreadEEC2INS0_20IOThreadPoolExecutor8IOThreadEvEERKS_IT_E.exit.i, label %10

10:                                               ; preds = %1
  %11 = getelementptr inbounds nuw i8, ptr %9, i64 8
  %12 = load i8, ptr @__libc_single_threaded, align 1, !tbaa !48
  %.not.i.i.i.i.i = icmp eq i8 %12, 0
  br i1 %.not.i.i.i.i.i, label %16, label %13

13:                                               ; preds = %10
  %14 = load i32, ptr %11, align 4, !tbaa !60
  %15 = add nsw i32 %14, 1
  store i32 %15, ptr %11, align 4, !tbaa !60
  br label %_ZNSt10shared_ptrIN5folly18ThreadPoolExecutor6ThreadEEC2INS0_20IOThreadPoolExecutor8IOThreadEvEERKS_IT_E.exit.i

16:                                               ; preds = %10
  %17 = atomicrmw volatile add ptr %11, i32 1 acq_rel, align 4
  br label %_ZNSt10shared_ptrIN5folly18ThreadPoolExecutor6ThreadEEC2INS0_20IOThreadPoolExecutor8IOThreadEvEERKS_IT_E.exit.i

_ZNSt10shared_ptrIN5folly18ThreadPoolExecutor6ThreadEEC2INS0_20IOThreadPoolExecutor8IOThreadEvEERKS_IT_E.exit.i: ; preds = %16, %13, %1
  %18 = getelementptr inbounds nuw i8, ptr %3, i64 32
  invoke void @_ZN5folly18ThreadPoolExecutor7runTaskERKSt10shared_ptrINS0_6ThreadEEONS0_4TaskE(ptr noundef nonnull align 64 dereferenceable(480) %4, ptr noundef nonnull align 8 dereferenceable(16) %2, ptr noundef nonnull align 16 dereferenceable(112) %18)
          to label %19 unwind label %42

19:                                               ; preds = %_ZNSt10shared_ptrIN5folly18ThreadPoolExecutor6ThreadEEC2INS0_20IOThreadPoolExecutor8IOThreadEvEERKS_IT_E.exit.i
  %20 = load ptr, ptr %7, align 8, !tbaa !46
  %.not.i.i.i = icmp eq ptr %20, null
  br i1 %.not.i.i.i, label %"_ZZN5folly20IOThreadPoolExecutor3addENS_8FunctionIFvvEEENSt6chrono8durationIlSt5ratioILl1ELl1000EEEES3_EN3$_0clEv.exit", label %21

21:                                               ; preds = %19
  %22 = getelementptr inbounds nuw i8, ptr %20, i64 8
  %23 = load atomic i64, ptr %22 acquire, align 8
  %24 = icmp eq i64 %23, 4294967297
  %25 = trunc i64 %23 to i32
  br i1 %24, label %26, label %34

26:                                               ; preds = %21
  store i32 0, ptr %22, align 8, !tbaa !21
  %27 = getelementptr inbounds nuw i8, ptr %20, i64 12
  store i32 0, ptr %27, align 4, !tbaa !24
  %28 = load ptr, ptr %20, align 8, !tbaa !25
  %29 = getelementptr inbounds nuw i8, ptr %28, i64 16
  %30 = load ptr, ptr %29, align 8
  call void %30(ptr noundef nonnull align 8 dereferenceable(16) %20) #25
  %31 = load ptr, ptr %20, align 8, !tbaa !25
  %32 = getelementptr inbounds nuw i8, ptr %31, i64 24
  %33 = load ptr, ptr %32, align 8
  call void %33(ptr noundef nonnull align 8 dereferenceable(16) %20) #25
  br label %"_ZZN5folly20IOThreadPoolExecutor3addENS_8FunctionIFvvEEENSt6chrono8durationIlSt5ratioILl1ELl1000EEEES3_EN3$_0clEv.exit"

34:                                               ; preds = %21
  %35 = load i8, ptr @__libc_single_threaded, align 1, !tbaa !48
  %.not.i.i.i2.i = icmp eq i8 %35, 0
  br i1 %.not.i.i.i2.i, label %38, label %36

36:                                               ; preds = %34
  %37 = add nsw i32 %25, -1
  store i32 %37, ptr %22, align 4, !tbaa !60
  br label %_ZN9__gnu_cxx27__exchange_and_add_dispatchEPii.exit.i.i.i.i

38:                                               ; preds = %34
  %39 = atomicrmw volatile add ptr %22, i32 -1 acq_rel, align 4
  br label %_ZN9__gnu_cxx27__exchange_and_add_dispatchEPii.exit.i.i.i.i

_ZN9__gnu_cxx27__exchange_and_add_dispatchEPii.exit.i.i.i.i: ; preds = %38, %36
  %.0.i.i.i.i.i = phi i32 [ %25, %36 ], [ %39, %38 ]
  %40 = icmp eq i32 %.0.i.i.i.i.i, 1
  br i1 %40, label %41, label %"_ZZN5folly20IOThreadPoolExecutor3addENS_8FunctionIFvvEEENSt6chrono8durationIlSt5ratioILl1ELl1000EEEES3_EN3$_0clEv.exit", !prof !91

41:                                               ; preds = %_ZN9__gnu_cxx27__exchange_and_add_dispatchEPii.exit.i.i.i.i
  call void @_ZNSt16_Sp_counted_baseILN9__gnu_cxx12_Lock_policyE2EE24_M_release_last_use_coldEv(ptr noundef nonnull align 8 dereferenceable(16) %20) #25
  br label %"_ZZN5folly20IOThreadPoolExecutor3addENS_8FunctionIFvvEEENSt6chrono8durationIlSt5ratioILl1ELl1000EEEES3_EN3$_0clEv.exit"

42:                                               ; preds = %_ZNSt10shared_ptrIN5folly18ThreadPoolExecutor6ThreadEEC2INS0_20IOThreadPoolExecutor8IOThreadEvEERKS_IT_E.exit.i
  %43 = landingpad { ptr, i32 }
          cleanup
  call void @_ZNSt12__shared_ptrIN5folly18ThreadPoolExecutor6ThreadELN9__gnu_cxx12_Lock_policyE2EED2Ev(ptr noundef nonnull align 8 dereferenceable(16) %2) #25
  call void @llvm.lifetime.end.p0(i64 16, ptr nonnull %2) #25
  resume { ptr, i32 } %43

"_ZZN5folly20IOThreadPoolExecutor3addENS_8FunctionIFvvEEENSt6chrono8durationIlSt5ratioILl1ELl1000EEEES3_EN3$_0clEv.exit": ; preds = %19, %26, %_ZN9__gnu_cxx27__exchange_and_add_dispatchEPii.exit.i.i.i.i, %41
  call void @llvm.lifetime.end.p0(i64 16, ptr nonnull %2) #25
  %44 = load ptr, ptr %5, align 8, !tbaa !82
  %45 = getelementptr inbounds nuw i8, ptr %44, i64 48
  %46 = atomicrmw sub ptr %45, i64 1 seq_cst, align 8
  ret void
}